target datalayout = "e-m:e-p270:32:32-p271:32:32-p272:64:64-i64:64-i128:128-f80:128-n8:16:32:64-S128"
target triple = "x86_64-unknown-linux-gnu"

%class.ptr_vector = type { %class.vector }
%class.vector = type { ptr }
%class.map_proc = type { ptr, %class.expr_map, %class.ptr_vector }
%class.expr_map = type { ptr, i8, [7 x i8], %class.obj_map, %class.obj_map.1 }
%class.obj_map = type { %class.core_hashtable }
%class.core_hashtable = type <{ ptr, i32, i32, i32, [4 x i8] }>
%class.obj_map.1 = type { %class.core_hashtable.2 }
%class.core_hashtable.2 = type <{ ptr, i32, i32, i32, [4 x i8] }>

; Function Attrs: mustprogress uwtable
define hidden noundef ptr @_ZN8map_proc8get_exprEP4expr(ptr noundef nonnull align 8 dereferenceable(80) %this, ptr noundef %e) #4 align 2 {
entry:
  %this.addr = alloca ptr, align 8
  %e.addr = alloca ptr, align 8
  %result = alloca ptr, align 8
  %p = alloca ptr, align 8
  store ptr %this, ptr %this.addr, align 8
  store ptr %e, ptr %e.addr, align 8
  %this1 = load ptr, ptr %this.addr, align 8
  store ptr null, ptr %result, align 8
  store ptr null, ptr %p, align 8
  %m_map = getelementptr inbounds %class.map_proc, ptr %this1, i32 0, i32 1
  %0 = load ptr, ptr %e.addr, align 8
  call void @_ZNK8expr_map3getEP4exprRS1_RP3app(ptr noundef nonnull align 8 dereferenceable(64) %m_map, ptr noundef %0, ptr noundef nonnull align 8 dereferenceable(8) %result, ptr noundef nonnull align 8 dereferenceable(8) %p)
  %1 = load ptr, ptr %result, align 8
  ret ptr %1
}