; Function Attrs: mustprogress uwtable
define hidden noundef ptr @_ZN8map_proc8get_exprEP4expr(ptr noundef nonnull align 8 dereferenceable(80) %this, ptr noundef %e) local_unnamed_addr #3 align 2 {
entry:
  %result = alloca ptr, align 8
  %p = alloca ptr, align 8
  store ptr null, ptr %result, align 8
  store ptr null, ptr %p, align 8
  %m_map = getelementptr inbounds i8, ptr %this, i64 8
  call void @_ZNK8expr_map3getEP4exprRS1_RP3app(ptr noundef nonnull align 8 dereferenceable(64) %m_map, ptr noundef %e, ptr noundef nonnull align 8 dereferenceable(8) %result, ptr noundef nonnull align 8 dereferenceable(8) %p)
  %0 = load ptr, ptr %result, align 8
  ret ptr %0
}